	.file	"main.c"
	.text
	.def	___main;	.scl	2;	.type	32;	.endef
	.section .rdata,"dr"
LC0:
	.ascii "Enter number a\0"
LC1:
	.ascii "%d\0"
LC2:
	.ascii "Enter number b\0"
LC3:
	.ascii "The sum is %d\0"
	.text
	.globl	_main
	.def	_main;	.scl	2;	.type	32;	.endef
_main:
LFB13:
	.cfi_startproc
	pushl	%ebp
	.cfi_def_cfa_offset 8
	.cfi_offset 5, -8
	movl	%esp, %ebp
	.cfi_def_cfa_register 5
	andl	$-16, %esp
	subl	$32, %esp
	call	___main
	movl	$LC0, (%esp)
	call	_puts
	leal	28(%esp), %eax
	movl	%eax, 4(%esp)
	movl	$LC1, (%esp)
	call	_scanf
	movl	$LC2, (%esp)
	call	_puts
	leal	24(%esp), %eax
	movl	%eax, 4(%esp)
	movl	$LC1, (%esp)
	call	_scanf
	movl	28(%esp), %edx
	movl	24(%esp), %eax
	addl	%edx, %eax
	movl	%eax, 4(%esp)
	movl	$LC3, (%esp)
	call	_printf
	movl	$0, %eax
	leave
	.cfi_restore 5
	.cfi_def_cfa 4, 4
	ret
	.cfi_endproc
LFE13:
	.ident	"GCC: (MinGW.org GCC Build-2) 9.2.0"
	.def	_puts;	.scl	2;	.type	32;	.endef
	.def	_scanf;	.scl	2;	.type	32;	.endef
	.def	_printf;	.scl	2;	.type	32;	.endef
